target datalayout = "e-m:e-p270:32:32-p271:32:32-p272:64:64-i64:64-i128:128-f80:128-n8:16:32:64-S128"
target triple = "x86_64-pc-linux-gnu"

%struct._zend_posix_globals = type { i32 }
%struct._zval_struct = type { %union._zend_value, %union.anon, %union.anon.2 }
%union._zend_value = type { i64 }
%union.anon = type { i32 }
%union.anon.2 = type { i32 }
%struct._zend_refcounted_h = type { i32, %union.anon.3 }
%union.anon.3 = type { i32 }
%struct._zend_execute_data = type { ptr, ptr, ptr, ptr, %struct._zval_struct, ptr, ptr, ptr, ptr }
%struct._zend_string = type { %struct._zend_refcounted_h, i64, i64, [1 x i8] }

@posix_globals = hidden global %struct._zend_posix_globals zeroinitializer, align 4

; Function Attrs: nounwind uwtable
define hidden void @zif_posix_getlogin(ptr noundef %0, ptr noundef %1) #0 {
  %3 = alloca ptr, align 8
  %4 = alloca i32, align 4
  %5 = alloca i64, align 8
  %6 = alloca i8, align 1
  %7 = alloca ptr, align 8
  %8 = alloca ptr, align 8
  %9 = alloca i64, align 8
  %10 = alloca i8, align 1
  %11 = alloca ptr, align 8
  %12 = alloca ptr, align 8
  %13 = alloca ptr, align 8
  %14 = alloca ptr, align 8
  %15 = alloca ptr, align 8
  %16 = alloca ptr, align 8
  %17 = alloca ptr, align 8
  store ptr %0, ptr %12, align 8
  store ptr %1, ptr %13, align 8
  br label %18

18:                                               ; preds = %2
  %19 = load ptr, ptr %12, align 8
  %20 = getelementptr inbounds %struct._zend_execute_data, ptr %19, i32 0, i32 4
  %21 = getelementptr inbounds %struct._zval_struct, ptr %20, i32 0, i32 2
  %22 = load i32, ptr %21, align 4
  %23 = icmp ne i32 %22, 0
  %24 = xor i1 %23, true
  %25 = xor i1 %24, true
  %26 = zext i1 %25 to i32
  %27 = sext i32 %26 to i64
  %28 = icmp ne i64 %27, 0
  br i1 %28, label %29, label %30

29:                                               ; preds = %18
  call void @zend_wrong_parameters_none_error()
  br label %505

30:                                               ; preds = %18
  br label %31

31:                                               ; preds = %30
  %32 = call ptr @getlogin()
  store ptr %32, ptr %14, align 8
  %33 = icmp eq ptr null, %32
  br i1 %33, label %34, label %43

34:                                               ; preds = %31
  %35 = call ptr @__errno_location() #10
  %36 = load i32, ptr %35, align 4
  store i32 %36, ptr @posix_globals, align 4
  br label %37

37:                                               ; preds = %34
  br label %38

38:                                               ; preds = %37
  %39 = load ptr, ptr %13, align 8
  %40 = getelementptr inbounds %struct._zval_struct, ptr %39, i32 0, i32 1
  store i32 2, ptr %40, align 8
  br label %41

41:                                               ; preds = %38
  br label %505

42:                                               ; No predecessors!
  br label %43

43:                                               ; preds = %42, %31
  br label %44

44:                                               ; preds = %43
  br label %45

45:                                               ; preds = %44
  %46 = load ptr, ptr %14, align 8
  store ptr %46, ptr %15, align 8
  br label %47

47:                                               ; preds = %45
  br label %48

48:                                               ; preds = %47
  %49 = load ptr, ptr %13, align 8
  store ptr %49, ptr %16, align 8
  %50 = load ptr, ptr %15, align 8
  %51 = load ptr, ptr %15, align 8
  %52 = call i64 @strlen(ptr noundef %51) #12
  store ptr %50, ptr %8, align 8
  store i64 %52, ptr %9, align 8
  store i8 0, ptr %10, align 1
  %53 = load i64, ptr %9, align 8
  %54 = load i8, ptr %10, align 1
  %55 = trunc i8 %54 to i1
  store i64 %53, ptr %5, align 8
  %56 = zext i1 %55 to i8
  store i8 %56, ptr %6, align 1
  %57 = load i8, ptr %6, align 1
  %58 = trunc i8 %57 to i1
  br i1 %58, label %59, label %67

59:                                               ; preds = %48
  %60 = load i64, ptr %5, align 8
  %61 = add i64 24, %60
  %62 = add i64 %61, 1
  %63 = add i64 %62, 8
  %64 = sub i64 %63, 1
  %65 = and i64 %64, -8
  %66 = call noalias ptr @__zend_malloc(i64 noundef %65) #13
  br label %471

67:                                               ; preds = %48
  %68 = load i64, ptr %5, align 8
  %69 = add i64 24, %68
  %70 = add i64 %69, 1
  %71 = add i64 %70, 8
  %72 = sub i64 %71, 1
  %73 = and i64 %72, -8
  %74 = call i1 @llvm.is.constant.i64(i64 %73)
  br i1 %74, label %75, label %461

75:                                               ; preds = %67
  %76 = load i64, ptr %5, align 8
  %77 = add i64 24, %76
  %78 = add i64 %77, 1
  %79 = add i64 %78, 8
  %80 = sub i64 %79, 1
  %81 = and i64 %80, -8
  %82 = icmp ule i64 %81, 8
  br i1 %82, label %83, label %85

83:                                               ; preds = %75
  %84 = call noalias ptr @_emalloc_8() #9
  br label %459

85:                                               ; preds = %75
  %86 = load i64, ptr %5, align 8
  %87 = add i64 24, %86
  %88 = add i64 %87, 1
  %89 = add i64 %88, 8
  %90 = sub i64 %89, 1
  %91 = and i64 %90, -8
  %92 = icmp ule i64 %91, 16
  br i1 %92, label %93, label %95

93:                                               ; preds = %85
  %94 = call noalias ptr @_emalloc_16() #9
  br label %457

95:                                               ; preds = %85
  %96 = load i64, ptr %5, align 8
  %97 = add i64 24, %96
  %98 = add i64 %97, 1
  %99 = add i64 %98, 8
  %100 = sub i64 %99, 1
  %101 = and i64 %100, -8
  %102 = icmp ule i64 %101, 24
  br i1 %102, label %103, label %105

103:                                              ; preds = %95
  %104 = call noalias ptr @_emalloc_24() #9
  br label %455

105:                                              ; preds = %95
  %106 = load i64, ptr %5, align 8
  %107 = add i64 24, %106
  %108 = add i64 %107, 1
  %109 = add i64 %108, 8
  %110 = sub i64 %109, 1
  %111 = and i64 %110, -8
  %112 = icmp ule i64 %111, 32
  br i1 %112, label %113, label %115

113:                                              ; preds = %105
  %114 = call noalias ptr @_emalloc_32() #9
  br label %453

115:                                              ; preds = %105
  %116 = load i64, ptr %5, align 8
  %117 = add i64 24, %116
  %118 = add i64 %117, 1
  %119 = add i64 %118, 8
  %120 = sub i64 %119, 1
  %121 = and i64 %120, -8
  %122 = icmp ule i64 %121, 40
  br i1 %122, label %123, label %125

123:                                              ; preds = %115
  %124 = call noalias ptr @_emalloc_40() #9
  br label %451

125:                                              ; preds = %115
  %126 = load i64, ptr %5, align 8
  %127 = add i64 24, %126
  %128 = add i64 %127, 1
  %129 = add i64 %128, 8
  %130 = sub i64 %129, 1
  %131 = and i64 %130, -8
  %132 = icmp ule i64 %131, 48
  br i1 %132, label %133, label %135

133:                                              ; preds = %125
  %134 = call noalias ptr @_emalloc_48() #9
  br label %449

135:                                              ; preds = %125
  %136 = load i64, ptr %5, align 8
  %137 = add i64 24, %136
  %138 = add i64 %137, 1
  %139 = add i64 %138, 8
  %140 = sub i64 %139, 1
  %141 = and i64 %140, -8
  %142 = icmp ule i64 %141, 56
  br i1 %142, label %143, label %145

143:                                              ; preds = %135
  %144 = call noalias ptr @_emalloc_56() #9
  br label %447

145:                                              ; preds = %135
  %146 = load i64, ptr %5, align 8
  %147 = add i64 24, %146
  %148 = add i64 %147, 1
  %149 = add i64 %148, 8
  %150 = sub i64 %149, 1
  %151 = and i64 %150, -8
  %152 = icmp ule i64 %151, 64
  br i1 %152, label %153, label %155

153:                                              ; preds = %145
  %154 = call noalias ptr @_emalloc_64() #9
  br label %445

155:                                              ; preds = %145
  %156 = load i64, ptr %5, align 8
  %157 = add i64 24, %156
  %158 = add i64 %157, 1
  %159 = add i64 %158, 8
  %160 = sub i64 %159, 1
  %161 = and i64 %160, -8
  %162 = icmp ule i64 %161, 80
  br i1 %162, label %163, label %165

163:                                              ; preds = %155
  %164 = call noalias ptr @_emalloc_80() #9
  br label %443

165:                                              ; preds = %155
  %166 = load i64, ptr %5, align 8
  %167 = add i64 24, %166
  %168 = add i64 %167, 1
  %169 = add i64 %168, 8
  %170 = sub i64 %169, 1
  %171 = and i64 %170, -8
  %172 = icmp ule i64 %171, 96
  br i1 %172, label %173, label %175

173:                                              ; preds = %165
  %174 = call noalias ptr @_emalloc_96() #9
  br label %441

175:                                              ; preds = %165
  %176 = load i64, ptr %5, align 8
  %177 = add i64 24, %176
  %178 = add i64 %177, 1
  %179 = add i64 %178, 8
  %180 = sub i64 %179, 1
  %181 = and i64 %180, -8
  %182 = icmp ule i64 %181, 112
  br i1 %182, label %183, label %185

183:                                              ; preds = %175
  %184 = call noalias ptr @_emalloc_112() #9
  br label %439

185:                                              ; preds = %175
  %186 = load i64, ptr %5, align 8
  %187 = add i64 24, %186
  %188 = add i64 %187, 1
  %189 = add i64 %188, 8
  %190 = sub i64 %189, 1
  %191 = and i64 %190, -8
  %192 = icmp ule i64 %191, 128
  br i1 %192, label %193, label %195

193:                                              ; preds = %185
  %194 = call noalias ptr @_emalloc_128() #9
  br label %437

195:                                              ; preds = %185
  %196 = load i64, ptr %5, align 8
  %197 = add i64 24, %196
  %198 = add i64 %197, 1
  %199 = add i64 %198, 8
  %200 = sub i64 %199, 1
  %201 = and i64 %200, -8
  %202 = icmp ule i64 %201, 160
  br i1 %202, label %203, label %205

203:                                              ; preds = %195
  %204 = call noalias ptr @_emalloc_160() #9
  br label %435

205:                                              ; preds = %195
  %206 = load i64, ptr %5, align 8
  %207 = add i64 24, %206
  %208 = add i64 %207, 1
  %209 = add i64 %208, 8
  %210 = sub i64 %209, 1
  %211 = and i64 %210, -8
  %212 = icmp ule i64 %211, 192
  br i1 %212, label %213, label %215

213:                                              ; preds = %205
  %214 = call noalias ptr @_emalloc_192() #9
  br label %433

215:                                              ; preds = %205
  %216 = load i64, ptr %5, align 8
  %217 = add i64 24, %216
  %218 = add i64 %217, 1
  %219 = add i64 %218, 8
  %220 = sub i64 %219, 1
  %221 = and i64 %220, -8
  %222 = icmp ule i64 %221, 224
  br i1 %222, label %223, label %225

223:                                              ; preds = %215
  %224 = call noalias ptr @_emalloc_224() #9
  br label %431

225:                                              ; preds = %215
  %226 = load i64, ptr %5, align 8
  %227 = add i64 24, %226
  %228 = add i64 %227, 1
  %229 = add i64 %228, 8
  %230 = sub i64 %229, 1
  %231 = and i64 %230, -8
  %232 = icmp ule i64 %231, 256
  br i1 %232, label %233, label %235

233:                                              ; preds = %225
  %234 = call noalias ptr @_emalloc_256() #9
  br label %429

235:                                              ; preds = %225
  %236 = load i64, ptr %5, align 8
  %237 = add i64 24, %236
  %238 = add i64 %237, 1
  %239 = add i64 %238, 8
  %240 = sub i64 %239, 1
  %241 = and i64 %240, -8
  %242 = icmp ule i64 %241, 320
  br i1 %242, label %243, label %245

243:                                              ; preds = %235
  %244 = call noalias ptr @_emalloc_320() #9
  br label %427

245:                                              ; preds = %235
  %246 = load i64, ptr %5, align 8
  %247 = add i64 24, %246
  %248 = add i64 %247, 1
  %249 = add i64 %248, 8
  %250 = sub i64 %249, 1
  %251 = and i64 %250, -8
  %252 = icmp ule i64 %251, 384
  br i1 %252, label %253, label %255

253:                                              ; preds = %245
  %254 = call noalias ptr @_emalloc_384() #9
  br label %425

255:                                              ; preds = %245
  %256 = load i64, ptr %5, align 8
  %257 = add i64 24, %256
  %258 = add i64 %257, 1
  %259 = add i64 %258, 8
  %260 = sub i64 %259, 1
  %261 = and i64 %260, -8
  %262 = icmp ule i64 %261, 448
  br i1 %262, label %263, label %265

263:                                              ; preds = %255
  %264 = call noalias ptr @_emalloc_448() #9
  br label %423

265:                                              ; preds = %255
  %266 = load i64, ptr %5, align 8
  %267 = add i64 24, %266
  %268 = add i64 %267, 1
  %269 = add i64 %268, 8
  %270 = sub i64 %269, 1
  %271 = and i64 %270, -8
  %272 = icmp ule i64 %271, 512
  br i1 %272, label %273, label %275

273:                                              ; preds = %265
  %274 = call noalias ptr @_emalloc_512() #9
  br label %421

275:                                              ; preds = %265
  %276 = load i64, ptr %5, align 8
  %277 = add i64 24, %276
  %278 = add i64 %277, 1
  %279 = add i64 %278, 8
  %280 = sub i64 %279, 1
  %281 = and i64 %280, -8
  %282 = icmp ule i64 %281, 640
  br i1 %282, label %283, label %285

283:                                              ; preds = %275
  %284 = call noalias ptr @_emalloc_640() #9
  br label %419

285:                                              ; preds = %275
  %286 = load i64, ptr %5, align 8
  %287 = add i64 24, %286
  %288 = add i64 %287, 1
  %289 = add i64 %288, 8
  %290 = sub i64 %289, 1
  %291 = and i64 %290, -8
  %292 = icmp ule i64 %291, 768
  br i1 %292, label %293, label %295

293:                                              ; preds = %285
  %294 = call noalias ptr @_emalloc_768() #9
  br label %417

295:                                              ; preds = %285
  %296 = load i64, ptr %5, align 8
  %297 = add i64 24, %296
  %298 = add i64 %297, 1
  %299 = add i64 %298, 8
  %300 = sub i64 %299, 1
  %301 = and i64 %300, -8
  %302 = icmp ule i64 %301, 896
  br i1 %302, label %303, label %305

303:                                              ; preds = %295
  %304 = call noalias ptr @_emalloc_896() #9
  br label %415

305:                                              ; preds = %295
  %306 = load i64, ptr %5, align 8
  %307 = add i64 24, %306
  %308 = add i64 %307, 1
  %309 = add i64 %308, 8
  %310 = sub i64 %309, 1
  %311 = and i64 %310, -8
  %312 = icmp ule i64 %311, 1024
  br i1 %312, label %313, label %315

313:                                              ; preds = %305
  %314 = call noalias ptr @_emalloc_1024() #9
  br label %413

315:                                              ; preds = %305
  %316 = load i64, ptr %5, align 8
  %317 = add i64 24, %316
  %318 = add i64 %317, 1
  %319 = add i64 %318, 8
  %320 = sub i64 %319, 1
  %321 = and i64 %320, -8
  %322 = icmp ule i64 %321, 1280
  br i1 %322, label %323, label %325

323:                                              ; preds = %315
  %324 = call noalias ptr @_emalloc_1280() #9
  br label %411

325:                                              ; preds = %315
  %326 = load i64, ptr %5, align 8
  %327 = add i64 24, %326
  %328 = add i64 %327, 1
  %329 = add i64 %328, 8
  %330 = sub i64 %329, 1
  %331 = and i64 %330, -8
  %332 = icmp ule i64 %331, 1536
  br i1 %332, label %333, label %335

333:                                              ; preds = %325
  %334 = call noalias ptr @_emalloc_1536() #9
  br label %409

335:                                              ; preds = %325
  %336 = load i64, ptr %5, align 8
  %337 = add i64 24, %336
  %338 = add i64 %337, 1
  %339 = add i64 %338, 8
  %340 = sub i64 %339, 1
  %341 = and i64 %340, -8
  %342 = icmp ule i64 %341, 1792
  br i1 %342, label %343, label %345

343:                                              ; preds = %335
  %344 = call noalias ptr @_emalloc_1792() #9
  br label %407

345:                                              ; preds = %335
  %346 = load i64, ptr %5, align 8
  %347 = add i64 24, %346
  %348 = add i64 %347, 1
  %349 = add i64 %348, 8
  %350 = sub i64 %349, 1
  %351 = and i64 %350, -8
  %352 = icmp ule i64 %351, 2048
  br i1 %352, label %353, label %355

353:                                              ; preds = %345
  %354 = call noalias ptr @_emalloc_2048() #9
  br label %405

355:                                              ; preds = %345
  %356 = load i64, ptr %5, align 8
  %357 = add i64 24, %356
  %358 = add i64 %357, 1
  %359 = add i64 %358, 8
  %360 = sub i64 %359, 1
  %361 = and i64 %360, -8
  %362 = icmp ule i64 %361, 2560
  br i1 %362, label %363, label %365

363:                                              ; preds = %355
  %364 = call noalias ptr @_emalloc_2560() #9
  br label %403

365:                                              ; preds = %355
  %366 = load i64, ptr %5, align 8
  %367 = add i64 24, %366
  %368 = add i64 %367, 1
  %369 = add i64 %368, 8
  %370 = sub i64 %369, 1
  %371 = and i64 %370, -8
  %372 = icmp ule i64 %371, 3072
  br i1 %372, label %373, label %375

373:                                              ; preds = %365
  %374 = call noalias ptr @_emalloc_3072() #9
  br label %401

375:                                              ; preds = %365
  %376 = load i64, ptr %5, align 8
  %377 = add i64 24, %376
  %378 = add i64 %377, 1
  %379 = add i64 %378, 8
  %380 = sub i64 %379, 1
  %381 = and i64 %380, -8
  %382 = icmp ule i64 %381, 2093056
  br i1 %382, label %383, label %391

383:                                              ; preds = %375
  %384 = load i64, ptr %5, align 8
  %385 = add i64 24, %384
  %386 = add i64 %385, 1
  %387 = add i64 %386, 8
  %388 = sub i64 %387, 1
  %389 = and i64 %388, -8
  %390 = call noalias ptr @_emalloc_large(i64 noundef %389) #13
  br label %399

391:                                              ; preds = %375
  %392 = load i64, ptr %5, align 8
  %393 = add i64 24, %392
  %394 = add i64 %393, 1
  %395 = add i64 %394, 8
  %396 = sub i64 %395, 1
  %397 = and i64 %396, -8
  %398 = call noalias ptr @_emalloc_huge(i64 noundef %397) #13
  br label %399

399:                                              ; preds = %391, %383
  %400 = phi ptr [ %390, %383 ], [ %398, %391 ]
  br label %401

401:                                              ; preds = %399, %373
  %402 = phi ptr [ %374, %373 ], [ %400, %399 ]
  br label %403

403:                                              ; preds = %401, %363
  %404 = phi ptr [ %364, %363 ], [ %402, %401 ]
  br label %405

405:                                              ; preds = %403, %353
  %406 = phi ptr [ %354, %353 ], [ %404, %403 ]
  br label %407

407:                                              ; preds = %405, %343
  %408 = phi ptr [ %344, %343 ], [ %406, %405 ]
  br label %409

409:                                              ; preds = %407, %333
  %410 = phi ptr [ %334, %333 ], [ %408, %407 ]
  br label %411

411:                                              ; preds = %409, %323
  %412 = phi ptr [ %324, %323 ], [ %410, %409 ]
  br label %413

413:                                              ; preds = %411, %313
  %414 = phi ptr [ %314, %313 ], [ %412, %411 ]
  br label %415

415:                                              ; preds = %413, %303
  %416 = phi ptr [ %304, %303 ], [ %414, %413 ]
  br label %417

417:                                              ; preds = %415, %293
  %418 = phi ptr [ %294, %293 ], [ %416, %415 ]
  br label %419

419:                                              ; preds = %417, %283
  %420 = phi ptr [ %284, %283 ], [ %418, %417 ]
  br label %421

421:                                              ; preds = %419, %273
  %422 = phi ptr [ %274, %273 ], [ %420, %419 ]
  br label %423

423:                                              ; preds = %421, %263
  %424 = phi ptr [ %264, %263 ], [ %422, %421 ]
  br label %425

425:                                              ; preds = %423, %253
  %426 = phi ptr [ %254, %253 ], [ %424, %423 ]
  br label %427

427:                                              ; preds = %425, %243
  %428 = phi ptr [ %244, %243 ], [ %426, %425 ]
  br label %429

429:                                              ; preds = %427, %233
  %430 = phi ptr [ %234, %233 ], [ %428, %427 ]
  br label %431

431:                                              ; preds = %429, %223
  %432 = phi ptr [ %224, %223 ], [ %430, %429 ]
  br label %433

433:                                              ; preds = %431, %213
  %434 = phi ptr [ %214, %213 ], [ %432, %431 ]
  br label %435

435:                                              ; preds = %433, %203
  %436 = phi ptr [ %204, %203 ], [ %434, %433 ]
  br label %437

437:                                              ; preds = %435, %193
  %438 = phi ptr [ %194, %193 ], [ %436, %435 ]
  br label %439

439:                                              ; preds = %437, %183
  %440 = phi ptr [ %184, %183 ], [ %438, %437 ]
  br label %441

441:                                              ; preds = %439, %173
  %442 = phi ptr [ %174, %173 ], [ %440, %439 ]
  br label %443

443:                                              ; preds = %441, %163
  %444 = phi ptr [ %164, %163 ], [ %442, %441 ]
  br label %445

445:                                              ; preds = %443, %153
  %446 = phi ptr [ %154, %153 ], [ %444, %443 ]
  br label %447

447:                                              ; preds = %445, %143
  %448 = phi ptr [ %144, %143 ], [ %446, %445 ]
  br label %449

449:                                              ; preds = %447, %133
  %450 = phi ptr [ %134, %133 ], [ %448, %447 ]
  br label %451

451:                                              ; preds = %449, %123
  %452 = phi ptr [ %124, %123 ], [ %450, %449 ]
  br label %453

453:                                              ; preds = %451, %113
  %454 = phi ptr [ %114, %113 ], [ %452, %451 ]
  br label %455

455:                                              ; preds = %453, %103
  %456 = phi ptr [ %104, %103 ], [ %454, %453 ]
  br label %457

457:                                              ; preds = %455, %93
  %458 = phi ptr [ %94, %93 ], [ %456, %455 ]
  br label %459

459:                                              ; preds = %457, %83
  %460 = phi ptr [ %84, %83 ], [ %458, %457 ]
  br label %469

461:                                              ; preds = %67
  %462 = load i64, ptr %5, align 8
  %463 = add i64 24, %462
  %464 = add i64 %463, 1
  %465 = add i64 %464, 8
  %466 = sub i64 %465, 1
  %467 = and i64 %466, -8
  %468 = call noalias ptr @_emalloc(i64 noundef %467) #13
  br label %469

469:                                              ; preds = %461, %459
  %470 = phi ptr [ %460, %459 ], [ %468, %461 ]
  br label %471

471:                                              ; preds = %469, %59
  %472 = phi ptr [ %66, %59 ], [ %470, %469 ]
  store ptr %472, ptr %7, align 8
  %473 = load ptr, ptr %7, align 8
  store ptr %473, ptr %3, align 8
  store i32 1, ptr %4, align 4
  %474 = load i32, ptr %4, align 4
  %475 = load ptr, ptr %3, align 8
  store i32 %474, ptr %475, align 4
  %476 = load i8, ptr %6, align 1
  %477 = trunc i8 %476 to i1
  %478 = select i1 %477, i32 128, i32 0
  %479 = or i32 22, %478
  %480 = load ptr, ptr %7, align 8
  %481 = getelementptr inbounds %struct._zend_refcounted_h, ptr %480, i32 0, i32 1
  store i32 %479, ptr %481, align 4
  %482 = load ptr, ptr %7, align 8
  %483 = getelementptr inbounds %struct._zend_string, ptr %482, i32 0, i32 1
  store i64 0, ptr %483, align 8
  %484 = load i64, ptr %5, align 8
  %485 = load ptr, ptr %7, align 8
  %486 = getelementptr inbounds %struct._zend_string, ptr %485, i32 0, i32 2
  store i64 %484, ptr %486, align 8
  %487 = load ptr, ptr %7, align 8
  store ptr %487, ptr %11, align 8
  %488 = load ptr, ptr %11, align 8
  %489 = getelementptr inbounds %struct._zend_string, ptr %488, i32 0, i32 3
  %490 = load ptr, ptr %8, align 8
  %491 = load i64, ptr %9, align 8
  call void @llvm.memcpy.p0.p0.i64(ptr align 8 %489, ptr align 1 %490, i64 %491, i1 false)
  %492 = load ptr, ptr %11, align 8
  %493 = getelementptr inbounds %struct._zend_string, ptr %492, i32 0, i32 3
  %494 = load i64, ptr %9, align 8
  %495 = getelementptr inbounds [1 x i8], ptr %493, i64 0, i64 %494
  store i8 0, ptr %495, align 1
  %496 = load ptr, ptr %11, align 8
  store ptr %496, ptr %17, align 8
  %497 = load ptr, ptr %17, align 8
  %498 = load ptr, ptr %16, align 8
  %499 = getelementptr inbounds %struct._zval_struct, ptr %498, i32 0, i32 0
  store ptr %497, ptr %499, align 8
  %500 = load ptr, ptr %16, align 8
  %501 = getelementptr inbounds %struct._zval_struct, ptr %500, i32 0, i32 1
  store i32 262, ptr %501, align 8
  br label %502

502:                                              ; preds = %471
  br label %503

503:                                              ; preds = %502
  br label %504

504:                                              ; preds = %503
  br label %505

505:                                              ; preds = %504, %41, %29
  ret void
}