; Function Attrs: nounwind uwtable
define hidden void @zif_posix_getlogin(ptr nocapture noundef readonly %0, ptr nocapture noundef writeonly %1) #0 {
  %3 = getelementptr inbounds i8, ptr %0, i64 44
  %4 = load i32, ptr %3, align 4
  %.not = icmp eq i32 %4, 0
  br i1 %.not, label %6, label %5

5:                                                ; preds = %2
  tail call void @zend_wrong_parameters_none_error() #11
  br label %24

6:                                                ; preds = %2
  %7 = tail call ptr @getlogin() #11
  %8 = icmp eq ptr %7, null
  br i1 %8, label %9, label %13

9:                                                ; preds = %6
  %10 = tail call ptr @__errno_location() #12
  %11 = load i32, ptr %10, align 4
  store i32 %11, ptr @posix_globals, align 4
  %12 = getelementptr inbounds i8, ptr %1, i64 8
  store i32 2, ptr %12, align 8
  br label %24

13:                                               ; preds = %6
  %14 = tail call i64 @strlen(ptr noundef nonnull dereferenceable(1) %7) #14
  %15 = and i64 %14, -8
  %16 = add i64 %15, 32
  %17 = tail call noalias ptr @_emalloc(i64 noundef %16) #13
  store i32 1, ptr %17, align 4
  %18 = getelementptr inbounds i8, ptr %17, i64 4
  store i32 22, ptr %18, align 4
  %19 = getelementptr inbounds i8, ptr %17, i64 8
  store i64 0, ptr %19, align 8
  %20 = getelementptr inbounds i8, ptr %17, i64 16
  store i64 %14, ptr %20, align 8
  %21 = getelementptr inbounds i8, ptr %17, i64 24
  tail call void @llvm.memcpy.p0.p0.i64(ptr nonnull align 8 %21, ptr nonnull align 1 %7, i64 %14, i1 false)
  %22 = getelementptr inbounds [1 x i8], ptr %21, i64 0, i64 %14
  store i8 0, ptr %22, align 1
  store ptr %17, ptr %1, align 8
  %23 = getelementptr inbounds i8, ptr %1, i64 8
  store i32 262, ptr %23, align 8
  br label %24

24:                                               ; preds = %13, %9, %5
  ret void
}